target datalayout = "e-m:e-p270:32:32-p271:32:32-p272:64:64-i64:64-i128:128-f80:128-n8:16:32:64-S128"
target triple = "x86_64-pc-linux-gnu"

%struct.expert_field = type { i32, i32 }
%struct._packet_info = type { ptr, ptr, i32, i32, %struct.nstime_t, %struct.nstime_t, %struct.nstime_t, i8, ptr, ptr, ptr, ptr, %struct._address, %struct._address, %struct._address, %struct._address, %struct._address, %struct._address, i32, ptr, i8, [3 x i8], %struct.anon, i32, i32, i32, i32, ptr, i8, ptr, ptr, i16, i16, i32, i32, i16, i32, i32, ptr, ptr, ptr, i8, i8, i16, i16, i16, i32, i16, i16, ptr, ptr, ptr, ptr, ptr, i32, i32 }
%struct.nstime_t = type { i64, i32 }
%struct._address = type { i32, i32, ptr, ptr }
%struct.anon = type { i8, [3 x i8] }
%struct.e164_info_t = type { i32, i32, ptr, i32 }

@ei_alcap_parameter_field_bad_length = internal global %struct.expert_field zeroinitializer, align 4

; Function Attrs: null_pointer_is_valid sspstrong uwtable
define internal ptr @dissect_fields_oesea(ptr noundef %0, ptr noundef %1, ptr noundef %2, i32 noundef %3, i32 noundef %4, ptr noundef %5) #0 {
  %7 = alloca ptr, align 8
  %8 = alloca ptr, align 8
  %9 = alloca ptr, align 8
  %10 = alloca ptr, align 8
  %11 = alloca i32, align 4
  %12 = alloca i32, align 4
  %13 = alloca ptr, align 8
  %14 = alloca ptr, align 8
  %15 = alloca i32, align 4
  store ptr %0, ptr %8, align 8
  store ptr %1, ptr %9, align 8
  store ptr %2, ptr %10, align 8
  store i32 %3, ptr %11, align 4
  store i32 %4, ptr %12, align 4
  store ptr %5, ptr %13, align 8
  call void @llvm.lifetime.start.p0(i64 8, ptr %14) #6
  %16 = load i32, ptr %12, align 4
  %17 = icmp slt i32 %16, 2
  br i1 %17, label %18, label %25

18:                                               ; preds = %6
  %19 = load ptr, ptr %10, align 8
  %20 = load ptr, ptr %8, align 8
  %21 = load ptr, ptr %9, align 8
  %22 = load i32, ptr %11, align 4
  %23 = load i32, ptr %12, align 4
  %24 = call ptr @proto_tree_add_expert(ptr noundef %19, ptr noundef %20, ptr noundef @ei_alcap_parameter_field_bad_length, ptr noundef %21, i32 noundef %22, i32 noundef %23)
  store ptr null, ptr %7, align 8
  store i32 1, ptr %15, align 4
  br label %59

25:                                               ; preds = %6
  %26 = load ptr, ptr %8, align 8
  %27 = getelementptr inbounds nuw %struct._packet_info, ptr %26, i32 0, i32 51
  %28 = load ptr, ptr %27, align 8
  %29 = call noalias ptr @wmem_alloc(ptr noundef %28, i64 noundef 24) #7
  store ptr %29, ptr %14, align 8
  %30 = load ptr, ptr %14, align 8
  %31 = getelementptr inbounds nuw %struct.e164_info_t, ptr %30, i32 0, i32 0
  store i32 1, ptr %31, align 8
  %32 = load ptr, ptr %9, align 8
  %33 = load i32, ptr %11, align 4
  %34 = call zeroext i8 @tvb_get_uint8(ptr noundef %32, i32 noundef %33)
  %35 = zext i8 %34 to i32
  %36 = and i32 %35, 127
  %37 = load ptr, ptr %14, align 8
  %38 = getelementptr inbounds nuw %struct.e164_info_t, ptr %37, i32 0, i32 1
  store i32 %36, ptr %38, align 4
  %39 = load ptr, ptr %8, align 8
  %40 = getelementptr inbounds nuw %struct._packet_info, ptr %39, i32 0, i32 51
  %41 = load ptr, ptr %40, align 8
  %42 = load ptr, ptr %9, align 8
  %43 = load i32, ptr %11, align 4
  %44 = add i32 %43, 1
  %45 = load i32, ptr %12, align 4
  %46 = call ptr @tvb_get_string_enc(ptr noundef %41, ptr noundef %42, i32 noundef %44, i32 noundef %45, i32 noundef 0)
  %47 = load ptr, ptr %14, align 8
  %48 = getelementptr inbounds nuw %struct.e164_info_t, ptr %47, i32 0, i32 2
  store ptr %46, ptr %48, align 8
  %49 = load i32, ptr %12, align 4
  %50 = sub i32 %49, 1
  %51 = load ptr, ptr %14, align 8
  %52 = getelementptr inbounds nuw %struct.e164_info_t, ptr %51, i32 0, i32 3
  store i32 %50, ptr %52, align 8
  %53 = load ptr, ptr %9, align 8
  %54 = load ptr, ptr %10, align 8
  %55 = load i32, ptr %11, align 4
  %56 = sub i32 %55, 1
  %57 = load i32, ptr %12, align 4
  %58 = load ptr, ptr %14, align 8
  call void @dissect_e164_number(ptr noundef %53, ptr noundef %54, i32 noundef %56, i32 noundef %57, ptr noundef byval(%struct.e164_info_t) align 8 %58)
  store ptr null, ptr %7, align 8
  store i32 1, ptr %15, align 4
  br label %59

59:                                               ; preds = %25, %18
  call void @llvm.lifetime.end.p0(i64 8, ptr %14) #6
  %60 = load ptr, ptr %7, align 8
  ret ptr %60
}