; Function Attrs: null_pointer_is_valid sspstrong uwtable
define internal noalias noundef ptr @dissect_fields_oesea(ptr noundef %0, ptr noundef %1, ptr noundef %2, i32 noundef %3, i32 noundef %4, ptr readnone captures(none) %5) #0 {
  %7 = icmp slt i32 %4, 2
  br i1 %7, label %8, label %10

8:                                                ; preds = %6
  %9 = tail call ptr @proto_tree_add_expert(ptr noundef %2, ptr noundef %0, ptr noundef nonnull @ei_alcap_parameter_field_bad_length, ptr noundef %1, i32 noundef %3, i32 noundef %4)
  br label %25

10:                                               ; preds = %6
  %11 = getelementptr inbounds nuw i8, ptr %0, i64 408
  %12 = load ptr, ptr %11, align 8
  %13 = tail call noalias dereferenceable_or_null(24) ptr @wmem_alloc(ptr noundef %12, i64 noundef 24) #7
  store i32 1, ptr %13, align 8
  %14 = tail call zeroext i8 @tvb_get_uint8(ptr noundef %1, i32 noundef %3)
  %15 = and i8 %14, 127
  %16 = zext nneg i8 %15 to i32
  %17 = getelementptr inbounds nuw i8, ptr %13, i64 4
  store i32 %16, ptr %17, align 4
  %18 = load ptr, ptr %11, align 8
  %19 = add i32 %3, 1
  %20 = tail call ptr @tvb_get_string_enc(ptr noundef %18, ptr noundef %1, i32 noundef %19, i32 noundef %4, i32 noundef 0)
  %21 = getelementptr inbounds nuw i8, ptr %13, i64 8
  store ptr %20, ptr %21, align 8
  %22 = add nsw i32 %4, -1
  %23 = getelementptr inbounds nuw i8, ptr %13, i64 16
  store i32 %22, ptr %23, align 8
  %24 = add i32 %3, -1
  tail call void @dissect_e164_number(ptr noundef %1, ptr noundef %2, i32 noundef %24, i32 noundef %4, ptr noundef byval(%struct.e164_info_t) align 8 %13)
  br label %25

25:                                               ; preds = %10, %8
  ret ptr null
}